; Function Attrs: mustprogress uwtable
define void @_ZN28RpcServiceResponseTimeDialog26updateOncRpcProcedureCountEjji(ptr noundef nonnull align 8 dereferenceable(316) %0, i32 noundef %1, i32 noundef %2, i32 noundef %3) local_unnamed_addr #0 align 2 personality ptr @__gxx_personality_v0 {
  %5 = alloca %class.QString, align 8
  %6 = alloca %class.QVariant, align 8
  %7 = getelementptr inbounds i8, ptr %0, i64 304
  %8 = getelementptr inbounds i8, ptr %0, i64 256
  %9 = load ptr, ptr %8, align 8
  call void @_ZNK9QComboBox11currentTextEv(ptr dead_on_unwind nonnull writable sret(%class.QString) align 8 %5, ptr noundef nonnull align 8 dereferenceable(40) %9)
  %10 = invoke noundef nonnull align 4 dereferenceable(4) ptr @_ZN4QMapI7QStringjEixERKS0_(ptr noundef nonnull align 8 dereferenceable(8) %7, ptr noundef nonnull align 8 dereferenceable(24) %5)
          to label %11 unwind label %17

11:                                               ; preds = %4
  %12 = load i32, ptr %10, align 4
  %.not = icmp eq i32 %12, %1
  %13 = load ptr, ptr %5, align 8
  %.not.i.i.i = icmp eq ptr %13, null
  br i1 %.not.i.i.i, label %_ZN7QStringD2Ev.exit, label %_ZN17QArrayDataPointerIDsE5derefEv.exit.i.i

_ZN17QArrayDataPointerIDsE5derefEv.exit.i.i:      ; preds = %11
  %14 = atomicrmw sub ptr %13, i32 1 seq_cst, align 4
  %.not.i.i = icmp eq i32 %14, 1
  br i1 %.not.i.i, label %15, label %_ZN7QStringD2Ev.exit

15:                                               ; preds = %_ZN17QArrayDataPointerIDsE5derefEv.exit.i.i
  %16 = load ptr, ptr %5, align 8
  call void @_ZN10QArrayData10deallocateEPS_xx(ptr noundef %16, i64 noundef 2, i64 noundef 8) #19
  br label %_ZN7QStringD2Ev.exit

_ZN7QStringD2Ev.exit:                             ; preds = %11, %_ZN17QArrayDataPointerIDsE5derefEv.exit.i.i, %15
  br i1 %.not, label %23, label %36

17:                                               ; preds = %4
  %18 = landingpad { ptr, i32 }
          cleanup
  %19 = load ptr, ptr %5, align 8
  %.not.i.i.i10 = icmp eq ptr %19, null
  br i1 %.not.i.i.i10, label %_ZN7QStringD2Ev.exit13, label %_ZN17QArrayDataPointerIDsE5derefEv.exit.i.i11

_ZN17QArrayDataPointerIDsE5derefEv.exit.i.i11:    ; preds = %17
  %20 = atomicrmw sub ptr %19, i32 1 seq_cst, align 4
  %.not.i.i12 = icmp eq i32 %20, 1
  br i1 %.not.i.i12, label %21, label %_ZN7QStringD2Ev.exit13

21:                                               ; preds = %_ZN17QArrayDataPointerIDsE5derefEv.exit.i.i11
  %22 = load ptr, ptr %5, align 8
  call void @_ZN10QArrayData10deallocateEPS_xx(ptr noundef %22, i64 noundef 2, i64 noundef 8) #19
  br label %_ZN7QStringD2Ev.exit13

23:                                               ; preds = %_ZN7QStringD2Ev.exit
  %24 = getelementptr inbounds i8, ptr %0, i64 264
  %25 = load ptr, ptr %24, align 8
  %26 = call noundef i32 @_ZNK9QComboBox12currentIndexEv(ptr noundef nonnull align 8 dereferenceable(40) %25)
  call void @_ZNK9QComboBox8itemDataEii(ptr dead_on_unwind nonnull writable sret(%class.QVariant) align 8 %6, ptr noundef nonnull align 8 dereferenceable(40) %25, i32 noundef %26, i32 noundef 256)
  %27 = invoke noundef i32 @_ZNK8QVariant6toUIntEPb(ptr noundef nonnull align 8 dereferenceable(32) %6, ptr noundef null)
          to label %28 unwind label %29

28:                                               ; preds = %23
  %.not9 = icmp eq i32 %27, %2
  call void @_ZN8QVariantD1Ev(ptr noundef nonnull align 8 dereferenceable(32) %6) #19
  br i1 %.not9, label %31, label %36

29:                                               ; preds = %23
  %30 = landingpad { ptr, i32 }
          cleanup
  call void @_ZN8QVariantD1Ev(ptr noundef nonnull align 8 dereferenceable(32) %6) #19
  br label %_ZN7QStringD2Ev.exit13

31:                                               ; preds = %28
  %32 = getelementptr inbounds i8, ptr %0, i64 312
  %33 = load i32, ptr %32, align 8
  %34 = icmp slt i32 %33, %3
  br i1 %34, label %35, label %36

35:                                               ; preds = %31
  store i32 %3, ptr %32, align 8
  br label %36

36:                                               ; preds = %28, %_ZN7QStringD2Ev.exit, %35, %31
  ret void

_ZN7QStringD2Ev.exit13:                           ; preds = %21, %_ZN17QArrayDataPointerIDsE5derefEv.exit.i.i11, %17, %29
  %.pn = phi { ptr, i32 } [ %30, %29 ], [ %18, %17 ], [ %18, %_ZN17QArrayDataPointerIDsE5derefEv.exit.i.i11 ], [ %18, %21 ]
  resume { ptr, i32 } %.pn
}